target datalayout = "e-m:e-p270:32:32-p271:32:32-p272:64:64-i64:64-i128:128-f80:128-n8:16:32:64-S128"
target triple = "x86_64-pc-linux-gnu"

%struct._psqlSettings = type { ptr, i32, ptr, i8, ptr, ptr, %struct.printQueryOpt, ptr, ptr, ptr, i8, i8, i32, i32, ptr, ptr, i8, [4 x ptr], i8, i32, ptr, i8, i32, ptr, ptr, i64, i64, i8, ptr, ptr, ptr, i8, i8, i8, i8, i8, i8, i8, i32, i32, i32, i32, i32, i32, i32, i32, ptr, ptr, ptr, i32, i8, i32 }
%struct.printQueryOpt = type { %struct.printTableOpt, ptr, ptr, ptr, i8, ptr, i32 }
%struct.printTableOpt = type { i32, i16, i32, i32, i16, i16, i32, i8, i8, i8, i8, i64, ptr, %struct.separator, %struct.separator, [2 x i8], i8, ptr, i32, i32, i32, i32, i32, i32 }
%struct.separator = type { ptr, i8 }
%struct.__jmp_buf_tag = type { [8 x i64], i32, %struct.__sigset_t }
%struct.__sigset_t = type { [16 x i64] }
%struct.PromptInterruptContext = type { ptr, ptr, i8 }

@pset = external global %struct._psqlSettings, align 8
@stdin = external global ptr, align 8
@.str.157 = private unnamed_addr constant [31 x i8] c"\\%s: missing required argument\00", align 1
@sigint_interrupt_jmp = external global [1 x %struct.__jmp_buf_tag], align 16
@sigint_interrupt_enabled = external global i32, align 4
@stdout = external global ptr, align 8
@.str.257 = private unnamed_addr constant [39 x i8] c"\\%s: could not read value for variable\00", align 1

; Function Attrs: nounwind uwtable
define internal void @ignore_slash_options(ptr noundef %0) #0 {
  %2 = alloca ptr, align 8
  %3 = alloca ptr, align 8
  store ptr %0, ptr %2, align 8
  call void @llvm.lifetime.start.p0(i64 8, ptr %3) #10
  br label %4

4:                                                ; preds = %8, %1
  %5 = load ptr, ptr %2, align 8
  %6 = call ptr @psql_scan_slash_option(ptr noundef %5, i32 noundef 0, ptr noundef null, i1 noundef zeroext false)
  store ptr %6, ptr %3, align 8
  %7 = icmp ne ptr %6, null
  br i1 %7, label %8, label %10

8:                                                ; preds = %4
  %9 = load ptr, ptr %3, align 8
  call void @free(ptr noundef %9) #10
  br label %4, !llvm.loop !18

10:                                               ; preds = %4
  call void @llvm.lifetime.end.p0(i64 8, ptr %3) #10
  ret void
}

; Function Attrs: nounwind uwtable
define internal i32 @exec_command_prompt(ptr noundef %0, i1 noundef zeroext %1, ptr noundef %2) #0 {
  %4 = alloca ptr, align 8
  %5 = alloca i8, align 1
  %6 = alloca ptr, align 8
  %7 = alloca i8, align 1
  %8 = alloca ptr, align 8
  %9 = alloca ptr, align 8
  %10 = alloca ptr, align 8
  %11 = alloca ptr, align 8
  %12 = alloca ptr, align 8
  %13 = alloca %struct.PromptInterruptContext, align 8
  store ptr %0, ptr %4, align 8
  %14 = zext i1 %1 to i8
  store i8 %14, ptr %5, align 1
  store ptr %2, ptr %6, align 8
  call void @llvm.lifetime.start.p0(i64 1, ptr %7) #10
  store i8 1, ptr %7, align 1
  %15 = load i8, ptr %5, align 1, !range !4, !noundef !5
  %16 = trunc i8 %15 to i1
  br i1 %16, label %17, label %78

17:                                               ; preds = %3
  call void @llvm.lifetime.start.p0(i64 8, ptr %8) #10
  call void @llvm.lifetime.start.p0(i64 8, ptr %9) #10
  store ptr null, ptr %9, align 8
  call void @llvm.lifetime.start.p0(i64 8, ptr %10) #10
  call void @llvm.lifetime.start.p0(i64 8, ptr %11) #10
  %18 = load ptr, ptr %4, align 8
  %19 = call ptr @psql_scan_slash_option(ptr noundef %18, i32 noundef 0, ptr noundef null, i1 noundef zeroext false)
  store ptr %19, ptr %10, align 8
  %20 = load ptr, ptr %4, align 8
  %21 = call ptr @psql_scan_slash_option(ptr noundef %20, i32 noundef 0, ptr noundef null, i1 noundef zeroext false)
  store ptr %21, ptr %11, align 8
  %22 = load ptr, ptr %10, align 8
  %23 = icmp ne ptr %22, null
  br i1 %23, label %26, label %24

24:                                               ; preds = %17
  %25 = load ptr, ptr %6, align 8
  call void (i32, i32, ptr, ...) @pg_log_generic(i32 noundef 4, i32 noundef 0, ptr noundef @.str.157, ptr noundef %25)
  store i8 0, ptr %7, align 1
  br label %77

26:                                               ; preds = %17
  call void @llvm.lifetime.start.p0(i64 8, ptr %12) #10
  call void @llvm.lifetime.start.p0(i64 24, ptr %13) #10
  %27 = getelementptr inbounds nuw %struct.PromptInterruptContext, ptr %13, i32 0, i32 0
  store ptr @sigint_interrupt_jmp, ptr %27, align 8
  %28 = getelementptr inbounds nuw %struct.PromptInterruptContext, ptr %13, i32 0, i32 1
  store ptr @sigint_interrupt_enabled, ptr %28, align 8
  %29 = getelementptr inbounds nuw %struct.PromptInterruptContext, ptr %13, i32 0, i32 2
  store i8 0, ptr %29, align 8
  %30 = load ptr, ptr %11, align 8
  %31 = icmp ne ptr %30, null
  br i1 %31, label %32, label %35

32:                                               ; preds = %26
  %33 = load ptr, ptr %10, align 8
  store ptr %33, ptr %9, align 8
  %34 = load ptr, ptr %11, align 8
  store ptr %34, ptr %8, align 8
  br label %37

35:                                               ; preds = %26
  %36 = load ptr, ptr %10, align 8
  store ptr %36, ptr %8, align 8
  br label %37

37:                                               ; preds = %35, %32
  %38 = load ptr, ptr getelementptr inbounds nuw (%struct._psqlSettings, ptr @pset, i32 0, i32 24), align 8
  %39 = icmp ne ptr %38, null
  br i1 %39, label %43, label %40

40:                                               ; preds = %37
  %41 = load ptr, ptr %9, align 8
  %42 = call ptr @simple_prompt_extended(ptr noundef %41, i1 noundef zeroext true, ptr noundef %13)
  store ptr %42, ptr %12, align 8
  br label %60

43:                                               ; preds = %37
  %44 = load ptr, ptr %9, align 8
  %45 = icmp ne ptr %44, null
  br i1 %45, label %46, label %52

46:                                               ; preds = %43
  %47 = load ptr, ptr %9, align 8
  %48 = load ptr, ptr @stdout, align 8
  %49 = call i32 @fputs(ptr noundef %47, ptr noundef %48)
  %50 = load ptr, ptr @stdout, align 8
  %51 = call i32 @fflush(ptr noundef %50)
  br label %52

52:                                               ; preds = %46, %43
  %53 = load ptr, ptr @stdin, align 8
  %54 = call ptr @gets_fromFile(ptr noundef %53)
  store ptr %54, ptr %12, align 8
  %55 = load ptr, ptr %12, align 8
  %56 = icmp ne ptr %55, null
  br i1 %56, label %59, label %57

57:                                               ; preds = %52
  %58 = load ptr, ptr %6, align 8
  call void (i32, i32, ptr, ...) @pg_log_generic(i32 noundef 4, i32 noundef 0, ptr noundef @.str.257, ptr noundef %58)
  store i8 0, ptr %7, align 1
  br label %59

59:                                               ; preds = %57, %52
  br label %60

60:                                               ; preds = %59, %40
  %61 = getelementptr inbounds nuw %struct.PromptInterruptContext, ptr %13, i32 0, i32 2
  %62 = load i8, ptr %61, align 8, !range !4, !noundef !5
  %63 = trunc i8 %62 to i1
  br i1 %63, label %72, label %64

64:                                               ; preds = %60
  %65 = load ptr, ptr %12, align 8
  %66 = icmp ne ptr %65, null
  br i1 %66, label %67, label %73

67:                                               ; preds = %64
  %68 = load ptr, ptr getelementptr inbounds nuw (%struct._psqlSettings, ptr @pset, i32 0, i32 29), align 8
  %69 = load ptr, ptr %8, align 8
  %70 = load ptr, ptr %12, align 8
  %71 = call zeroext i1 @SetVariable(ptr noundef %68, ptr noundef %69, ptr noundef %70)
  br i1 %71, label %73, label %72

72:                                               ; preds = %67, %60
  store i8 0, ptr %7, align 1
  br label %73

73:                                               ; preds = %72, %67, %64
  %74 = load ptr, ptr %12, align 8
  call void @free(ptr noundef %74) #10
  %75 = load ptr, ptr %9, align 8
  call void @free(ptr noundef %75) #10
  %76 = load ptr, ptr %8, align 8
  call void @free(ptr noundef %76) #10
  call void @llvm.lifetime.end.p0(i64 24, ptr %13) #10
  call void @llvm.lifetime.end.p0(i64 8, ptr %12) #10
  br label %77

77:                                               ; preds = %73, %24
  call void @llvm.lifetime.end.p0(i64 8, ptr %11) #10
  call void @llvm.lifetime.end.p0(i64 8, ptr %10) #10
  call void @llvm.lifetime.end.p0(i64 8, ptr %9) #10
  call void @llvm.lifetime.end.p0(i64 8, ptr %8) #10
  br label %80

78:                                               ; preds = %3
  %79 = load ptr, ptr %4, align 8
  call void @ignore_slash_options(ptr noundef %79)
  br label %80

80:                                               ; preds = %78, %77
  %81 = load i8, ptr %7, align 1, !range !4, !noundef !5
  %82 = trunc i8 %81 to i1
  %83 = select i1 %82, i32 2, i32 5
  call void @llvm.lifetime.end.p0(i64 1, ptr %7) #10
  ret i32 %83
}