; Function Attrs: nounwind uwtable
define internal fastcc range(i32 2, 6) i32 @exec_command_prompt(ptr noundef %0, i1 noundef zeroext %1, ptr noundef %2) unnamed_addr #0 {
  %4 = alloca %struct.PromptInterruptContext, align 8
  %5 = tail call ptr @psql_scan_slash_option(ptr noundef %0, i32 noundef 0, ptr noundef null, i1 noundef zeroext false) #16
  br i1 %1, label %6, label %29

6:                                                ; preds = %3
  %7 = tail call ptr @psql_scan_slash_option(ptr noundef %0, i32 noundef 0, ptr noundef null, i1 noundef zeroext false) #16
  %.not = icmp eq ptr %5, null
  br i1 %.not, label %8, label %9

8:                                                ; preds = %6
  tail call void (i32, i32, ptr, ...) @pg_log_generic(i32 noundef 4, i32 noundef 0, ptr noundef nonnull @.str.157, ptr noundef %2) #16
  br label %ignore_slash_options.exit

9:                                                ; preds = %6
  call void @llvm.lifetime.start.p0(i64 24, ptr nonnull %4) #16
  store ptr @sigint_interrupt_jmp, ptr %4, align 8
  %10 = getelementptr inbounds nuw i8, ptr %4, i64 8
  store ptr @sigint_interrupt_enabled, ptr %10, align 8
  %11 = getelementptr inbounds nuw i8, ptr %4, i64 16
  store i8 0, ptr %11, align 8
  %.not28 = icmp eq ptr %7, null
  %. = select i1 %.not28, ptr null, ptr %5
  %.33 = select i1 %.not28, ptr %5, ptr %7
  %12 = load ptr, ptr getelementptr inbounds nuw (i8, ptr @pset, i64 344), align 8
  %.not29 = icmp eq ptr %12, null
  br i1 %.not29, label %22, label %13

13:                                               ; preds = %9
  br i1 %.not28, label %19, label %14

14:                                               ; preds = %13
  %15 = load ptr, ptr @stdout, align 8
  %16 = tail call i32 @fputs(ptr noundef nonnull %5, ptr noundef %15)
  %17 = load ptr, ptr @stdout, align 8
  %18 = tail call i32 @fflush(ptr noundef %17)
  br label %19

19:                                               ; preds = %14, %13
  %20 = load ptr, ptr @stdin, align 8
  %21 = tail call ptr @gets_fromFile(ptr noundef %20) #16
  %.not31 = icmp eq ptr %21, null
  br i1 %.not31, label %.thread, label %.thread47

22:                                               ; preds = %9
  %23 = call ptr @simple_prompt_extended(ptr noundef %., i1 noundef zeroext true, ptr noundef nonnull %4) #16
  %.pre = load i8, ptr %11, align 8, !range !4
  %24 = trunc nuw i8 %.pre to i1
  br i1 %24, label %.thread40, label %25

.thread:                                          ; preds = %19
  tail call void (i32, i32, ptr, ...) @pg_log_generic(i32 noundef 4, i32 noundef 0, ptr noundef nonnull @.str.257, ptr noundef %2) #16
  br label %.thread40

25:                                               ; preds = %22
  %.not32 = icmp eq ptr %23, null
  br i1 %.not32, label %.thread40, label %.thread47

.thread47:                                        ; preds = %19, %25
  %.04650 = phi ptr [ %23, %25 ], [ %21, %19 ]
  %26 = load ptr, ptr getelementptr inbounds nuw (i8, ptr @pset, i64 384), align 8
  %27 = call zeroext i1 @SetVariable(ptr noundef %26, ptr noundef nonnull %.33, ptr noundef nonnull %.04650) #16
  %28 = select i1 %27, i32 2, i32 5
  br label %.thread40

.thread40:                                        ; preds = %.thread47, %.thread, %22, %25
  %.037 = phi ptr [ null, %25 ], [ %23, %22 ], [ null, %.thread ], [ %.04650, %.thread47 ]
  %.2 = phi i32 [ 2, %25 ], [ 5, %22 ], [ 5, %.thread ], [ %28, %.thread47 ]
  call void @free(ptr noundef %.037) #16
  call void @free(ptr noundef %.) #16
  call void @free(ptr noundef %.33) #16
  call void @llvm.lifetime.end.p0(i64 24, ptr nonnull %4) #16
  br label %ignore_slash_options.exit

29:                                               ; preds = %3
  %.not2.i = icmp eq ptr %5, null
  br i1 %.not2.i, label %ignore_slash_options.exit, label %.lr.ph.i

.lr.ph.i:                                         ; preds = %29, %.lr.ph.i
  %30 = phi ptr [ %31, %.lr.ph.i ], [ %5, %29 ]
  tail call void @free(ptr noundef nonnull %30) #16
  %31 = tail call ptr @psql_scan_slash_option(ptr noundef %0, i32 noundef 0, ptr noundef null, i1 noundef zeroext false) #16
  %.not.i = icmp eq ptr %31, null
  br i1 %.not.i, label %ignore_slash_options.exit, label %.lr.ph.i, !llvm.loop !10

ignore_slash_options.exit:                        ; preds = %.lr.ph.i, %29, %8, %.thread40
  %.3 = phi i32 [ %.2, %.thread40 ], [ 5, %8 ], [ 2, %29 ], [ 2, %.lr.ph.i ]
  ret i32 %.3
}